; Function Attrs: mustprogress nofree norecurse nosync nounwind willreturn memory(argmem: readwrite) uwtable
define noundef zeroext i1 @pxr_nc_1_0_GetColorSpaceDescriptor(ptr noundef readonly %0, ptr noundef writeonly %1) local_unnamed_addr #16 {
  %3 = icmp ne ptr %0, null
  %4 = icmp ne ptr %1, null
  %or.cond = and i1 %3, %4
  br i1 %or.cond, label %5, label %10

5:                                                ; preds = %2
  %6 = getelementptr inbounds nuw i8, ptr %0, i64 32
  %7 = load float, ptr %6, align 8
  %8 = fcmp oeq float %7, 0.000000e+00
  br i1 %8, label %10, label %9

9:                                                ; preds = %5
  tail call void @llvm.memcpy.p0.p0.i64(ptr noundef nonnull align 8 dereferenceable(48) %1, ptr noundef nonnull align 8 dereferenceable(48) %0, i64 48, i1 false)
  br label %10

10:                                               ; preds = %5, %2, %9
  %.0 = phi i1 [ true, %9 ], [ false, %2 ], [ false, %5 ]
  ret i1 %.0
}